target datalayout = "e-m:e-p270:32:32-p271:32:32-p272:64:64-i64:64-i128:128-f80:128-n8:16:32:64-S128"
target triple = "x86_64-pc-linux-gnu"

%struct.b2TreeNode = type { %struct.b2AABB, i64, %union.anon, i32, %union.anon.0, i16, i16 }
%struct.b2AABB = type { %struct.b2Vec2, %struct.b2Vec2 }
%struct.b2Vec2 = type { float, float }
%union.anon = type { i32 }
%union.anon.0 = type { i32 }
%struct.b2DynamicTree = type { ptr, i32, i32, i32, i32, i32, ptr, ptr, ptr, ptr, i32 }

; Function Attrs: nounwind uwtable
define void @b2DynamicTree_Create(ptr dead_on_unwind noalias writable sret(%struct.b2DynamicTree) align 8 %0) #0 {
  %2 = alloca i32, align 4
  %3 = getelementptr inbounds nuw %struct.b2DynamicTree, ptr %0, i32 0, i32 1
  store i32 -1, ptr %3, align 8, !tbaa !3
  %4 = getelementptr inbounds nuw %struct.b2DynamicTree, ptr %0, i32 0, i32 3
  store i32 16, ptr %4, align 8, !tbaa !13
  %5 = getelementptr inbounds nuw %struct.b2DynamicTree, ptr %0, i32 0, i32 2
  store i32 0, ptr %5, align 4, !tbaa !14
  %6 = getelementptr inbounds nuw %struct.b2DynamicTree, ptr %0, i32 0, i32 3
  %7 = load i32, ptr %6, align 8, !tbaa !13
  %8 = sext i32 %7 to i64
  %9 = mul i64 %8, 40
  %10 = trunc i64 %9 to i32
  %11 = call ptr @b2Alloc(i32 noundef %10)
  %12 = getelementptr inbounds nuw %struct.b2DynamicTree, ptr %0, i32 0, i32 0
  store ptr %11, ptr %12, align 8, !tbaa !15
  %13 = getelementptr inbounds nuw %struct.b2DynamicTree, ptr %0, i32 0, i32 0
  %14 = load ptr, ptr %13, align 8, !tbaa !15
  %15 = getelementptr inbounds nuw %struct.b2DynamicTree, ptr %0, i32 0, i32 3
  %16 = load i32, ptr %15, align 8, !tbaa !13
  %17 = sext i32 %16 to i64
  %18 = mul i64 %17, 40
  call void @llvm.memset.p0.i64(ptr align 8 %14, i8 0, i64 %18, i1 false)
  call void @llvm.lifetime.start.p0(i64 4, ptr %2) #9
  store i32 0, ptr %2, align 4, !tbaa !16
  br label %19

19:                                               ; preds = %35, %1
  %20 = load i32, ptr %2, align 4, !tbaa !16
  %21 = getelementptr inbounds nuw %struct.b2DynamicTree, ptr %0, i32 0, i32 3
  %22 = load i32, ptr %21, align 8, !tbaa !13
  %23 = sub nsw i32 %22, 1
  %24 = icmp slt i32 %20, %23
  br i1 %24, label %26, label %25

25:                                               ; preds = %19
  call void @llvm.lifetime.end.p0(i64 4, ptr %2) #9
  br label %38

26:                                               ; preds = %19
  %27 = load i32, ptr %2, align 4, !tbaa !16
  %28 = add nsw i32 %27, 1
  %29 = getelementptr inbounds nuw %struct.b2DynamicTree, ptr %0, i32 0, i32 0
  %30 = load ptr, ptr %29, align 8, !tbaa !15
  %31 = load i32, ptr %2, align 4, !tbaa !16
  %32 = sext i32 %31 to i64
  %33 = getelementptr inbounds %struct.b2TreeNode, ptr %30, i64 %32
  %34 = getelementptr inbounds nuw %struct.b2TreeNode, ptr %33, i32 0, i32 2
  store i32 %28, ptr %34, align 8, !tbaa !17
  br label %35

35:                                               ; preds = %26
  %36 = load i32, ptr %2, align 4, !tbaa !16
  %37 = add nsw i32 %36, 1
  store i32 %37, ptr %2, align 4, !tbaa !16
  br label %19, !llvm.loop !18

38:                                               ; preds = %25
  %39 = getelementptr inbounds nuw %struct.b2DynamicTree, ptr %0, i32 0, i32 0
  %40 = load ptr, ptr %39, align 8, !tbaa !15
  %41 = getelementptr inbounds nuw %struct.b2DynamicTree, ptr %0, i32 0, i32 3
  %42 = load i32, ptr %41, align 8, !tbaa !13
  %43 = sub nsw i32 %42, 1
  %44 = sext i32 %43 to i64
  %45 = getelementptr inbounds %struct.b2TreeNode, ptr %40, i64 %44
  %46 = getelementptr inbounds nuw %struct.b2TreeNode, ptr %45, i32 0, i32 2
  store i32 -1, ptr %46, align 8, !tbaa !17
  %47 = getelementptr inbounds nuw %struct.b2DynamicTree, ptr %0, i32 0, i32 4
  store i32 0, ptr %47, align 4, !tbaa !20
  %48 = getelementptr inbounds nuw %struct.b2DynamicTree, ptr %0, i32 0, i32 5
  store i32 0, ptr %48, align 8, !tbaa !21
  %49 = getelementptr inbounds nuw %struct.b2DynamicTree, ptr %0, i32 0, i32 6
  store ptr null, ptr %49, align 8, !tbaa !22
  %50 = getelementptr inbounds nuw %struct.b2DynamicTree, ptr %0, i32 0, i32 7
  store ptr null, ptr %50, align 8, !tbaa !23
  %51 = getelementptr inbounds nuw %struct.b2DynamicTree, ptr %0, i32 0, i32 8
  store ptr null, ptr %51, align 8, !tbaa !24
  %52 = getelementptr inbounds nuw %struct.b2DynamicTree, ptr %0, i32 0, i32 9
  store ptr null, ptr %52, align 8, !tbaa !25
  %53 = getelementptr inbounds nuw %struct.b2DynamicTree, ptr %0, i32 0, i32 10
  store i32 0, ptr %53, align 8, !tbaa !26
  ret void
}