; Function Attrs: nounwind uwtable
define void @b2DynamicTree_Create(ptr dead_on_unwind noalias writable writeonly sret(%struct.b2DynamicTree) align 8 captures(none) initializes((0, 20)) %0) local_unnamed_addr #0 {
  %2 = getelementptr inbounds nuw i8, ptr %0, i64 8
  store i32 -1, ptr %2, align 8, !tbaa !3
  %3 = getelementptr inbounds nuw i8, ptr %0, i64 16
  store i32 16, ptr %3, align 8, !tbaa !13
  %4 = getelementptr inbounds nuw i8, ptr %0, i64 12
  store i32 0, ptr %4, align 4, !tbaa !14
  %5 = tail call ptr @b2Alloc(i32 noundef 640) #13
  store ptr %5, ptr %0, align 8, !tbaa !15
  tail call void @llvm.memset.p0.i64(ptr noundef nonnull align 8 dereferenceable(640) %5, i8 0, i64 640, i1 false)
  br label %11

6:                                                ; preds = %11
  %7 = getelementptr inbounds nuw i8, ptr %5, i64 624
  store i32 -1, ptr %7, align 8, !tbaa !16
  %8 = getelementptr inbounds nuw i8, ptr %0, i64 20
  store i32 0, ptr %8, align 4, !tbaa !17
  %9 = getelementptr inbounds nuw i8, ptr %0, i64 24
  store i32 0, ptr %9, align 8, !tbaa !18
  %10 = getelementptr inbounds nuw i8, ptr %0, i64 32
  tail call void @llvm.memset.p0.i64(ptr noundef nonnull align 8 dereferenceable(36) %10, i8 0, i64 36, i1 false)
  ret void

11:                                               ; preds = %1, %11
  %indvars.iv = phi i64 [ 0, %1 ], [ %indvars.iv.next, %11 ]
  %indvars.iv.next = add nuw nsw i64 %indvars.iv, 1
  %12 = getelementptr inbounds nuw %struct.b2TreeNode, ptr %5, i64 %indvars.iv, i32 2
  %13 = trunc nuw nsw i64 %indvars.iv.next to i32
  store i32 %13, ptr %12, align 8, !tbaa !16
  %exitcond.not = icmp eq i64 %indvars.iv.next, 15
  br i1 %exitcond.not, label %6, label %11, !llvm.loop !19
}